; Function Attrs: mustprogress uwtable
define noalias ptr @lean_io_set_heartbeats(ptr noundef %0, ptr noundef readnone captures(none) %1) local_unnamed_addr #0 {
  %3 = ptrtoint ptr %0 to i64
  %4 = and i64 %3, 1
  %.not.i2 = icmp eq i64 %4, 0
  br i1 %.not.i2, label %6, label %_ZL18lean_uint64_of_natP11lean_object.exit.thread

_ZL18lean_uint64_of_natP11lean_object.exit.thread: ; preds = %2
  %5 = lshr i64 %3, 1
  tail call void @_ZN4lean14set_heartbeatsEm(i64 noundef %5)
  br label %_ZL8lean_decP11lean_object.exit

6:                                                ; preds = %2
  %7 = tail call i64 @lean_uint64_of_big_nat(ptr noundef %0)
  tail call void @_ZN4lean14set_heartbeatsEm(i64 noundef %7)
  %8 = load i32, ptr %0, align 4, !tbaa !7
  %9 = icmp sgt i32 %8, 1
  br i1 %9, label %10, label %12, !prof !10

10:                                               ; preds = %6
  %11 = add nsw i32 %8, -1
  store i32 %11, ptr %0, align 4, !tbaa !7
  br label %_ZL8lean_decP11lean_object.exit

12:                                               ; preds = %6
  %.not.i = icmp eq i32 %8, 0
  br i1 %.not.i, label %_ZL8lean_decP11lean_object.exit, label %13

13:                                               ; preds = %12
  tail call void @lean_dec_ref_cold(ptr noundef nonnull %0)
  br label %_ZL8lean_decP11lean_object.exit

_ZL8lean_decP11lean_object.exit:                  ; preds = %13, %12, %10, %_ZL18lean_uint64_of_natP11lean_object.exit.thread
  tail call void @lean_inc_heartbeat()
  %14 = tail call noalias ptr @mi_malloc_small(i64 noundef 24) #27
  %15 = icmp eq ptr %14, null
  br i1 %15, label %16, label %_ZN4lean15io_result_mk_okEP11lean_object.exit

16:                                               ; preds = %_ZL8lean_decP11lean_object.exit
  tail call void @lean_internal_panic_out_of_memory() #28
  unreachable

_ZN4lean15io_result_mk_okEP11lean_object.exit:    ; preds = %_ZL8lean_decP11lean_object.exit
  %17 = getelementptr inbounds nuw i8, ptr %14, i64 4
  store i32 1, ptr %14, align 4, !tbaa !7
  store i32 131096, ptr %17, align 4
  %18 = getelementptr inbounds nuw i8, ptr %14, i64 8
  store ptr inttoptr (i64 1 to ptr), ptr %18, align 8, !tbaa !3
  %19 = getelementptr inbounds nuw i8, ptr %14, i64 16
  store ptr inttoptr (i64 1 to ptr), ptr %19, align 8, !tbaa !3
  ret ptr %14
}